; Function Attrs: mustprogress uwtable
define hidden void @_ZN5osgeo4proj9operation18PROJBasedOperationC1ERKN7dropbox6oxygen2nnISt10shared_ptrINS1_15OperationMethodEEEE(ptr noundef nonnull align 8 dereferenceable(65) %0, ptr noundef nonnull align 8 dereferenceable(16) %1) unnamed_addr #4 align 2 personality ptr @__gxx_personality_v0 {
  %3 = getelementptr inbounds i8, ptr %0, i64 72
  tail call void @_ZN5osgeo4proj9operation19CoordinateOperationC2Ev(ptr noundef nonnull align 8 dereferenceable(72) %3)
  invoke void @_ZN5osgeo4proj9operation15SingleOperationC2ERKN7dropbox6oxygen2nnISt10shared_ptrINS1_15OperationMethodEEEE(ptr noundef nonnull align 8 dereferenceable(16) %0, ptr noundef nonnull getelementptr inbounds ([12 x ptr], ptr @_ZTTN5osgeo4proj9operation18PROJBasedOperationE, i64 0, i64 1), ptr noundef nonnull align 8 dereferenceable(16) %1)
          to label %4 unwind label %11

4:                                                ; preds = %2
  store ptr getelementptr inbounds inrange(-24, 72) ({ [12 x ptr], [18 x ptr], [5 x ptr], [5 x ptr], [5 x ptr], [5 x ptr] }, ptr @_ZTVN5osgeo4proj9operation18PROJBasedOperationE, i64 0, i32 0, i64 3), ptr %0, align 8
  store ptr getelementptr inbounds inrange(-88, 56) ({ [12 x ptr], [18 x ptr], [5 x ptr], [5 x ptr], [5 x ptr], [5 x ptr] }, ptr @_ZTVN5osgeo4proj9operation18PROJBasedOperationE, i64 0, i32 1, i64 11), ptr %3, align 8
  %5 = getelementptr inbounds i8, ptr %0, i64 88
  store ptr getelementptr inbounds inrange(-16, 24) ({ [12 x ptr], [18 x ptr], [5 x ptr], [5 x ptr], [5 x ptr], [5 x ptr] }, ptr @_ZTVN5osgeo4proj9operation18PROJBasedOperationE, i64 0, i32 2, i64 2), ptr %5, align 8
  %6 = getelementptr inbounds i8, ptr %0, i64 96
  store ptr getelementptr inbounds inrange(-16, 24) ({ [12 x ptr], [18 x ptr], [5 x ptr], [5 x ptr], [5 x ptr], [5 x ptr] }, ptr @_ZTVN5osgeo4proj9operation18PROJBasedOperationE, i64 0, i32 3, i64 2), ptr %6, align 8
  %7 = getelementptr inbounds i8, ptr %0, i64 120
  store ptr getelementptr inbounds inrange(-16, 24) ({ [12 x ptr], [18 x ptr], [5 x ptr], [5 x ptr], [5 x ptr], [5 x ptr] }, ptr @_ZTVN5osgeo4proj9operation18PROJBasedOperationE, i64 0, i32 4, i64 2), ptr %7, align 8
  %8 = getelementptr inbounds i8, ptr %0, i64 128
  store ptr getelementptr inbounds inrange(-16, 24) ({ [12 x ptr], [18 x ptr], [5 x ptr], [5 x ptr], [5 x ptr], [5 x ptr] }, ptr @_ZTVN5osgeo4proj9operation18PROJBasedOperationE, i64 0, i32 5, i64 2), ptr %8, align 8
  %9 = getelementptr inbounds i8, ptr %0, i64 16
  tail call void @_ZNSt7__cxx1112basic_stringIcSt11char_traitsIcESaIcEEC1Ev(ptr noundef nonnull align 8 dereferenceable(32) %9) #14
  %10 = getelementptr inbounds i8, ptr %0, i64 48
  tail call void @llvm.memset.p0.i64(ptr noundef nonnull align 8 dereferenceable(17) %10, i8 0, i64 17, i1 false)
  ret void

11:                                               ; preds = %2
  %12 = landingpad { ptr, i32 }
          cleanup
  tail call void @_ZN5osgeo4proj9operation19CoordinateOperationD2Ev(ptr noundef nonnull align 8 dereferenceable(72) %3) #14
  resume { ptr, i32 } %12
}